target datalayout = "e-m:e-p270:32:32-p271:32:32-p272:64:64-i64:64-i128:128-f80:128-n8:16:32:64-S128"
target triple = "x86_64-unknown-linux-gnu"

%"struct.cvc5::internal::StatisticBaseValue.base" = type <{ ptr, i8 }>
%"class.cvc5::internal::ValueStat" = type { ptr }
%"struct.cvc5::internal::StatisticBackedValue" = type { %"struct.cvc5::internal::StatisticBaseValue.base", i64 }

; Function Attrs: mustprogress nounwind uwtable
define hidden void @_ZN4cvc58internal7IntStat9minAssignEl(ptr noundef nonnull align 8 dereferenceable(8) %this, i64 noundef %val) #0 align 2 {
entry:
  %this.addr = alloca ptr, align 8
  %val.addr = alloca i64, align 8
  store ptr %this, ptr %this.addr, align 8
  store i64 %val, ptr %val.addr, align 8
  %this1 = load ptr, ptr %this.addr, align 8
  %d_data = getelementptr inbounds %"class.cvc5::internal::ValueStat", ptr %this1, i32 0, i32 0
  %0 = load ptr, ptr %d_data, align 8
  %d_value = getelementptr inbounds %"struct.cvc5::internal::StatisticBackedValue", ptr %0, i32 0, i32 1
  %1 = load i64, ptr %d_value, align 8
  %2 = load i64, ptr %val.addr, align 8
  %cmp = icmp sgt i64 %1, %2
  br i1 %cmp, label %if.then, label %if.end

if.then:                                          ; preds = %entry
  %3 = load i64, ptr %val.addr, align 8
  %d_data2 = getelementptr inbounds %"class.cvc5::internal::ValueStat", ptr %this1, i32 0, i32 0
  %4 = load ptr, ptr %d_data2, align 8
  %d_value3 = getelementptr inbounds %"struct.cvc5::internal::StatisticBackedValue", ptr %4, i32 0, i32 1
  store i64 %3, ptr %d_value3, align 8
  br label %if.end

if.end:                                           ; preds = %if.then, %entry
  ret void
}