; Function Attrs: mustprogress nofree norecurse nosync nounwind willreturn memory(readwrite, inaccessiblemem: none) uwtable
define hidden void @_ZN4cvc58internal7IntStat9minAssignEl(ptr noundef nonnull readonly align 8 captures(none) dereferenceable(8) %this, i64 noundef %val) local_unnamed_addr #0 align 2 {
entry:
  %0 = load ptr, ptr %this, align 8
  %d_value = getelementptr inbounds nuw i8, ptr %0, i64 16
  %1 = load i64, ptr %d_value, align 8
  %cmp = icmp sgt i64 %1, %val
  br i1 %cmp, label %if.then, label %if.end

if.then:                                          ; preds = %entry
  store i64 %val, ptr %d_value, align 8
  br label %if.end

if.end:                                           ; preds = %if.then, %entry
  ret void
}